target datalayout = "e-m:e-p270:32:32-p271:32:32-p272:64:64-i64:64-i128:128-f80:128-n8:16:32:64-S128"
target triple = "x86_64-pc-linux-gnu"

%struct.expert_field = type { i32, i32 }
%struct._packet_info = type { ptr, ptr, i32, i32, %struct.nstime_t, %struct.nstime_t, %struct.nstime_t, i8, ptr, ptr, ptr, ptr, %struct._address, %struct._address, %struct._address, %struct._address, %struct._address, %struct._address, i32, ptr, i8, [3 x i8], %struct.anon, i32, i32, i32, i32, ptr, i8, ptr, ptr, i16, i16, i32, i32, i16, i32, i32, ptr, ptr, ptr, i8, i8, i16, i16, i16, i32, i16, i16, ptr, ptr, ptr, ptr, ptr, i32, i32 }
%struct.nstime_t = type { i64, i32 }
%struct._address = type { i32, i32, ptr, ptr }
%struct.anon = type { i8, [3 x i8] }

@hf_nas_eps_tsc = internal global i32 0, align 4
@hf_nas_eps_emm_nas_key_set_id = internal global i32 0, align 4
@ei_nas_eps_extraneous_data = internal global %struct.expert_field zeroinitializer, align 4
@hf_nas_eps_emm_spare_half_octet = internal global i32 0, align 4
@ei_nas_eps_missing_mandatory_elemen = internal global %struct.expert_field zeroinitializer, align 4
@.str.959 = private unnamed_addr constant [62 x i8] c"Missing Mandatory element %s%s, rest of dissection is suspect\00", align 1
@.str.986 = private unnamed_addr constant [3 x i8] c"%s\00", align 1
@.str.1003 = private unnamed_addr constant [6 x i8] c" ASME\00", align 1
@.str.1012 = private unnamed_addr constant [17 x i8] c" - EPS challenge\00", align 1

; Function Attrs: null_pointer_is_valid sspstrong uwtable
define internal void @de_emm_nas_key_set_id_bits(ptr noundef %0, ptr noundef %1, i32 noundef %2, ptr noundef %3) #1 {
  %5 = alloca ptr, align 8
  %6 = alloca ptr, align 8
  %7 = alloca i32, align 4
  %8 = alloca ptr, align 8
  %9 = alloca ptr, align 8
  store ptr %0, ptr %5, align 8
  store ptr %1, ptr %6, align 8
  store i32 %2, ptr %7, align 4
  store ptr %3, ptr %8, align 8
  call void @llvm.lifetime.start.p0(i64 8, ptr %9) #10
  %10 = load ptr, ptr %6, align 8
  %11 = load i32, ptr @hf_nas_eps_tsc, align 4
  %12 = load ptr, ptr %5, align 8
  %13 = load i32, ptr %7, align 4
  %14 = call ptr @proto_tree_add_bits_item(ptr noundef %10, i32 noundef %11, ptr noundef %12, i32 noundef %13, i32 noundef 1, i32 noundef 0)
  %15 = load i32, ptr %7, align 4
  %16 = add i32 %15, 1
  store i32 %16, ptr %7, align 4
  %17 = load ptr, ptr %6, align 8
  %18 = load i32, ptr @hf_nas_eps_emm_nas_key_set_id, align 4
  %19 = load ptr, ptr %5, align 8
  %20 = load i32, ptr %7, align 4
  %21 = call ptr @proto_tree_add_bits_item(ptr noundef %17, i32 noundef %18, ptr noundef %19, i32 noundef %20, i32 noundef 3, i32 noundef 0)
  store ptr %21, ptr %9, align 8
  %22 = load ptr, ptr %8, align 8
  %23 = icmp ne ptr %22, null
  br i1 %23, label %24, label %27

24:                                               ; preds = %4
  %25 = load ptr, ptr %9, align 8
  %26 = load ptr, ptr %8, align 8
  call void (ptr, ptr, ...) @proto_item_append_text(ptr noundef %25, ptr noundef @.str.986, ptr noundef %26)
  br label %27

27:                                               ; preds = %24, %4
  call void @llvm.lifetime.end.p0(i64 8, ptr %9) #10
  ret void
}

; Function Attrs: null_pointer_is_valid sspstrong uwtable
define internal void @nas_emm_auth_req(ptr noundef %0, ptr noundef %1, ptr noundef %2, i32 noundef %3, i32 noundef %4) #1 {
  %6 = alloca ptr, align 8
  %7 = alloca ptr, align 8
  %8 = alloca ptr, align 8
  %9 = alloca i32, align 4
  %10 = alloca i32, align 4
  %11 = alloca i32, align 4
  %12 = alloca i32, align 4
  %13 = alloca i32, align 4
  %14 = alloca i32, align 4
  store ptr %0, ptr %6, align 8
  store ptr %1, ptr %7, align 8
  store ptr %2, ptr %8, align 8
  store i32 %3, ptr %9, align 4
  store i32 %4, ptr %10, align 4
  call void @llvm.lifetime.start.p0(i64 4, ptr %11) #10
  call void @llvm.lifetime.start.p0(i64 4, ptr %12) #10
  call void @llvm.lifetime.start.p0(i64 4, ptr %13) #10
  call void @llvm.lifetime.start.p0(i64 4, ptr %14) #10
  %15 = load i32, ptr %9, align 4
  store i32 %15, ptr %11, align 4
  %16 = load i32, ptr %10, align 4
  store i32 %16, ptr %14, align 4
  %17 = load ptr, ptr %8, align 8
  %18 = getelementptr inbounds nuw %struct._packet_info, ptr %17, i32 0, i32 46
  store i32 1, ptr %18, align 8
  %19 = load i32, ptr %11, align 4
  %20 = shl i32 %19, 3
  store i32 %20, ptr %12, align 4
  %21 = load ptr, ptr %7, align 8
  %22 = load i32, ptr @hf_nas_eps_emm_spare_half_octet, align 4
  %23 = load ptr, ptr %6, align 8
  %24 = load i32, ptr %12, align 4
  %25 = call ptr @proto_tree_add_bits_item(ptr noundef %21, i32 noundef %22, ptr noundef %23, i32 noundef %24, i32 noundef 4, i32 noundef 0)
  %26 = load i32, ptr %12, align 4
  %27 = add i32 %26, 4
  store i32 %27, ptr %12, align 4
  %28 = load ptr, ptr %6, align 8
  %29 = load ptr, ptr %7, align 8
  %30 = load i32, ptr %12, align 4
  call void @de_emm_nas_key_set_id_bits(ptr noundef %28, ptr noundef %29, i32 noundef %30, ptr noundef @.str.1003)
  %31 = load i32, ptr %14, align 4
  %32 = add i32 %31, -1
  store i32 %32, ptr %14, align 4
  %33 = load i32, ptr %11, align 4
  %34 = add i32 %33, 1
  store i32 %34, ptr %11, align 4
  %35 = load i32, ptr %14, align 4
  %36 = icmp sgt i32 %35, 0
  br i1 %36, label %37, label %52

37:                                               ; preds = %5
  %38 = load ptr, ptr %6, align 8
  %39 = load ptr, ptr %7, align 8
  %40 = load ptr, ptr %8, align 8
  %41 = load i32, ptr %11, align 4
  %42 = call zeroext i16 @elem_v(ptr noundef %38, ptr noundef %39, ptr noundef %40, i32 noundef 1, i32 noundef 0, i32 noundef %41, ptr noundef @.str.1012)
  %43 = zext i16 %42 to i32
  store i32 %43, ptr %13, align 4
  %44 = icmp ugt i32 %43, 0
  br i1 %44, label %45, label %52

45:                                               ; preds = %37
  %46 = load i32, ptr %13, align 4
  %47 = load i32, ptr %11, align 4
  %48 = add i32 %47, %46
  store i32 %48, ptr %11, align 4
  %49 = load i32, ptr %13, align 4
  %50 = load i32, ptr %14, align 4
  %51 = sub i32 %50, %49
  store i32 %51, ptr %14, align 4
  br label %59

52:                                               ; preds = %37, %5
  %53 = load ptr, ptr %7, align 8
  %54 = load ptr, ptr %8, align 8
  %55 = load ptr, ptr %6, align 8
  %56 = load i32, ptr %11, align 4
  %57 = call ptr @get_gsm_a_msg_string(i32 noundef 1, i32 noundef 0)
  %58 = call ptr (ptr, ptr, ptr, ptr, i32, i32, ptr, ...) @proto_tree_add_expert_format(ptr noundef %53, ptr noundef %54, ptr noundef @ei_nas_eps_missing_mandatory_elemen, ptr noundef %55, i32 noundef %56, i32 noundef 0, ptr noundef @.str.959, ptr noundef %57, ptr noundef @.str.1012)
  br label %59

59:                                               ; preds = %52, %45
  %60 = load i32, ptr %14, align 4
  %61 = icmp sgt i32 %60, 0
  br i1 %61, label %62, label %78

62:                                               ; preds = %59
  %63 = load ptr, ptr %6, align 8
  %64 = load ptr, ptr %7, align 8
  %65 = load ptr, ptr %8, align 8
  %66 = load i32, ptr %11, align 4
  %67 = load i32, ptr %14, align 4
  %68 = call zeroext i16 @elem_lv(ptr noundef %63, ptr noundef %64, ptr noundef %65, i32 noundef 1, i32 noundef 1, i32 noundef %66, i32 noundef %67, ptr noundef @.str.1012)
  %69 = zext i16 %68 to i32
  store i32 %69, ptr %13, align 4
  %70 = icmp ugt i32 %69, 0
  br i1 %70, label %71, label %78

71:                                               ; preds = %62
  %72 = load i32, ptr %13, align 4
  %73 = load i32, ptr %11, align 4
  %74 = add i32 %73, %72
  store i32 %74, ptr %11, align 4
  %75 = load i32, ptr %13, align 4
  %76 = load i32, ptr %14, align 4
  %77 = sub i32 %76, %75
  store i32 %77, ptr %14, align 4
  br label %85

78:                                               ; preds = %62, %59
  %79 = load ptr, ptr %7, align 8
  %80 = load ptr, ptr %8, align 8
  %81 = load ptr, ptr %6, align 8
  %82 = load i32, ptr %11, align 4
  %83 = call ptr @get_gsm_a_msg_string(i32 noundef 1, i32 noundef 1)
  %84 = call ptr (ptr, ptr, ptr, ptr, i32, i32, ptr, ...) @proto_tree_add_expert_format(ptr noundef %79, ptr noundef %80, ptr noundef @ei_nas_eps_missing_mandatory_elemen, ptr noundef %81, i32 noundef %82, i32 noundef 0, ptr noundef @.str.959, ptr noundef %83, ptr noundef @.str.1012)
  br label %85

85:                                               ; preds = %78, %71
  %86 = load i32, ptr %14, align 4
  %87 = icmp ugt i32 %86, 0
  br i1 %87, label %88, label %100

88:                                               ; preds = %85
  %89 = load ptr, ptr %7, align 8
  %90 = load ptr, ptr %8, align 8
  %91 = load ptr, ptr %6, align 8
  %92 = load i32, ptr %11, align 4
  %93 = load i32, ptr %14, align 4
  %94 = sub i32 %93, 0
  %95 = call ptr @proto_tree_add_expert(ptr noundef %89, ptr noundef %90, ptr noundef @ei_nas_eps_extraneous_data, ptr noundef %91, i32 noundef %92, i32 noundef %94)
  %96 = load i32, ptr %14, align 4
  %97 = sub i32 %96, 0
  %98 = load i32, ptr %11, align 4
  %99 = add i32 %98, %97
  store i32 %99, ptr %11, align 4
  br label %100

100:                                              ; preds = %88, %85
  call void @llvm.lifetime.end.p0(i64 4, ptr %14) #10
  call void @llvm.lifetime.end.p0(i64 4, ptr %13) #10
  call void @llvm.lifetime.end.p0(i64 4, ptr %12) #10
  call void @llvm.lifetime.end.p0(i64 4, ptr %11) #10
  ret void
}