; Function Attrs: null_pointer_is_valid sspstrong uwtable
define internal void @nas_emm_auth_req(ptr noundef %0, ptr noundef %1, ptr noundef initializes((384, 388)) %2, i32 noundef %3, i32 noundef %4) #1 {
  %6 = getelementptr inbounds nuw i8, ptr %2, i64 384
  store i32 1, ptr %6, align 8
  %7 = shl i32 %3, 3
  %8 = load i32, ptr @hf_nas_eps_emm_spare_half_octet, align 4
  %9 = tail call ptr @proto_tree_add_bits_item(ptr noundef %1, i32 noundef %8, ptr noundef %0, i32 noundef %7, i32 noundef 4, i32 noundef 0)
  %10 = or disjoint i32 %7, 4
  %11 = load i32, ptr @hf_nas_eps_tsc, align 4
  %12 = tail call ptr @proto_tree_add_bits_item(ptr noundef %1, i32 noundef %11, ptr noundef %0, i32 noundef range(i32 0, -3) %10, i32 noundef 1, i32 noundef 0)
  %13 = or disjoint i32 %7, 5
  %14 = load i32, ptr @hf_nas_eps_emm_nas_key_set_id, align 4
  %15 = tail call ptr @proto_tree_add_bits_item(ptr noundef %1, i32 noundef %14, ptr noundef %0, i32 noundef %13, i32 noundef 3, i32 noundef 0)
  tail call void (ptr, ptr, ...) @proto_item_append_text(ptr noundef %15, ptr noundef nonnull @.str.986, ptr noundef nonnull @.str.1003)
  %16 = add i32 %4, -1
  %17 = add i32 %3, 1
  %18 = icmp sgt i32 %16, 0
  br i1 %18, label %19, label %25

19:                                               ; preds = %5
  %20 = tail call zeroext i16 @elem_v(ptr noundef %0, ptr noundef %1, ptr noundef %2, i32 noundef 1, i32 noundef 0, i32 noundef %17, ptr noundef nonnull @.str.1012)
  %.not = icmp eq i16 %20, 0
  br i1 %.not, label %25, label %21

21:                                               ; preds = %19
  %22 = zext i16 %20 to i32
  %23 = add i32 %17, %22
  %24 = sub nsw i32 %16, %22
  br label %28

25:                                               ; preds = %19, %5
  %26 = tail call ptr @get_gsm_a_msg_string(i32 noundef 1, i32 noundef 0)
  %27 = tail call ptr (ptr, ptr, ptr, ptr, i32, i32, ptr, ...) @proto_tree_add_expert_format(ptr noundef %1, ptr noundef %2, ptr noundef nonnull @ei_nas_eps_missing_mandatory_elemen, ptr noundef %0, i32 noundef %17, i32 noundef 0, ptr noundef nonnull @.str.959, ptr noundef %26, ptr noundef nonnull @.str.1012)
  br label %28

28:                                               ; preds = %25, %21
  %.047 = phi i32 [ %23, %21 ], [ %17, %25 ]
  %.0 = phi i32 [ %24, %21 ], [ %16, %25 ]
  %29 = icmp sgt i32 %.0, 0
  br i1 %29, label %30, label %36

30:                                               ; preds = %28
  %31 = tail call zeroext i16 @elem_lv(ptr noundef %0, ptr noundef %1, ptr noundef %2, i32 noundef 1, i32 noundef 1, i32 noundef %.047, i32 noundef %.0, ptr noundef nonnull @.str.1012)
  %.not52 = icmp eq i16 %31, 0
  br i1 %.not52, label %36, label %32

32:                                               ; preds = %30
  %33 = zext i16 %31 to i32
  %34 = add i32 %.047, %33
  %35 = sub nsw i32 %.0, %33
  br label %39

36:                                               ; preds = %30, %28
  %37 = tail call ptr @get_gsm_a_msg_string(i32 noundef 1, i32 noundef 1)
  %38 = tail call ptr (ptr, ptr, ptr, ptr, i32, i32, ptr, ...) @proto_tree_add_expert_format(ptr noundef %1, ptr noundef %2, ptr noundef nonnull @ei_nas_eps_missing_mandatory_elemen, ptr noundef %0, i32 noundef %.047, i32 noundef 0, ptr noundef nonnull @.str.959, ptr noundef %37, ptr noundef nonnull @.str.1012)
  br label %39

39:                                               ; preds = %36, %32
  %.148 = phi i32 [ %34, %32 ], [ %.047, %36 ]
  %.1 = phi i32 [ %35, %32 ], [ %.0, %36 ]
  %.not53 = icmp eq i32 %.1, 0
  br i1 %.not53, label %42, label %40

40:                                               ; preds = %39
  %41 = tail call ptr @proto_tree_add_expert(ptr noundef %1, ptr noundef %2, ptr noundef nonnull @ei_nas_eps_extraneous_data, ptr noundef %0, i32 noundef %.148, i32 noundef %.1)
  br label %42

42:                                               ; preds = %40, %39
  ret void
}